target datalayout = "e-m:e-p270:32:32-p271:32:32-p272:64:64-i64:64-i128:128-f80:128-n8:16:32:64-S128"
target triple = "x86_64-pc-linux-gnu"

%struct.ident_t = type { i32, i32, i32, i32, ptr }
%"class.std::function" = type { %"class.std::_Function_base", ptr }
%"class.std::_Function_base" = type { %"union.std::_Any_data", ptr }
%"union.std::_Any_data" = type { %"union.std::_Nocopy_types" }
%"union.std::_Nocopy_types" = type { { i64, i64 } }

@1 = private unnamed_addr constant %struct.ident_t { i32 0, i32 514, i32 0, i32 22, ptr @0 }, align 8
@_ZTISt9exception = external constant ptr

; Function Attrs: mustprogress nounwind uwtable
define linkonce_odr noundef zeroext i1 @_ZNKSt14_Function_base8_M_emptyEv(ptr noundef nonnull align 8 dereferenceable(24) %0) #0 comdat align 2 {
  %2 = alloca ptr, align 8
  store ptr %0, ptr %2, align 8
  %3 = load ptr, ptr %2, align 8
  %4 = getelementptr inbounds %"class.std::_Function_base", ptr %3, i32 0, i32 1
  %5 = load ptr, ptr %4, align 8
  %6 = icmp ne ptr %5, null
  %7 = xor i1 %6, true
  ret i1 %7
}

; Function Attrs: mustprogress uwtable
define linkonce_odr void @_ZNKSt8functionIFviiiEEclEiii(ptr noundef nonnull align 8 dereferenceable(32) %0, i32 noundef %1, i32 noundef %2, i32 noundef %3) #1 comdat align 2 {
  %5 = alloca ptr, align 8
  %6 = alloca i32, align 4
  %7 = alloca i32, align 4
  %8 = alloca i32, align 4
  store ptr %0, ptr %5, align 8
  store i32 %1, ptr %6, align 4
  store i32 %2, ptr %7, align 4
  store i32 %3, ptr %8, align 4
  %9 = load ptr, ptr %5, align 8
  %10 = call noundef zeroext i1 @_ZNKSt14_Function_base8_M_emptyEv(ptr noundef nonnull align 8 dereferenceable(24) %9)
  br i1 %10, label %11, label %12

11:                                               ; preds = %4
  call void @_ZSt25__throw_bad_function_callv() #21
  unreachable

12:                                               ; preds = %4
  %13 = getelementptr inbounds %"class.std::function", ptr %9, i32 0, i32 1
  %14 = load ptr, ptr %13, align 8
  %15 = getelementptr inbounds %"class.std::_Function_base", ptr %9, i32 0, i32 0
  call void %14(ptr noundef nonnull align 8 dereferenceable(16) %15, ptr noundef nonnull align 4 dereferenceable(4) %6, ptr noundef nonnull align 4 dereferenceable(4) %7, ptr noundef nonnull align 4 dereferenceable(4) %8)
  ret void
}

; Function Attrs: mustprogress nounwind uwtable
define linkonce_odr noundef nonnull align 4 dereferenceable(4) ptr @_ZSt3minIiERKT_S2_S2_(ptr noundef nonnull align 4 dereferenceable(4) %0, ptr noundef nonnull align 4 dereferenceable(4) %1) #0 comdat {
  %3 = alloca ptr, align 8
  %4 = alloca ptr, align 8
  %5 = alloca ptr, align 8
  store ptr %0, ptr %4, align 8
  store ptr %1, ptr %5, align 8
  %6 = load ptr, ptr %5, align 8
  %7 = load i32, ptr %6, align 4
  %8 = load ptr, ptr %4, align 8
  %9 = load i32, ptr %8, align 4
  %10 = icmp slt i32 %7, %9
  br i1 %10, label %11, label %13

11:                                               ; preds = %2
  %12 = load ptr, ptr %5, align 8
  store ptr %12, ptr %3, align 8
  br label %15

13:                                               ; preds = %2
  %14 = load ptr, ptr %4, align 8
  store ptr %14, ptr %3, align 8
  br label %15

15:                                               ; preds = %13, %11
  %16 = load ptr, ptr %3, align 8
  ret ptr %16
}

; Function Attrs: norecurse nounwind uwtable
define internal void @_ZN8LightGBM9Threading3ForIiEEiT_S2_S2_RKSt8functionIFviS2_S2_EE.omp_outlined(ptr noalias noundef %0, ptr noalias noundef %1, ptr noundef nonnull align 4 dereferenceable(4) %2, ptr noundef nonnull align 4 dereferenceable(4) %3, ptr noundef nonnull align 4 dereferenceable(4) %4, ptr noundef nonnull align 4 dereferenceable(4) %5, ptr noundef nonnull align 8 dereferenceable(32) %6, ptr noundef nonnull align 8 dereferenceable(48) %7) #7 personality ptr @__gxx_personality_v0 {
  %9 = alloca ptr, align 8
  %10 = alloca ptr, align 8
  %11 = alloca ptr, align 8
  %12 = alloca ptr, align 8
  %13 = alloca ptr, align 8
  %14 = alloca ptr, align 8
  %15 = alloca ptr, align 8
  %16 = alloca ptr, align 8
  %17 = alloca ptr, align 8
  %18 = alloca i32, align 4
  %19 = alloca i32, align 4
  %20 = alloca i32, align 4
  %21 = alloca i32, align 4
  %22 = alloca i32, align 4
  %23 = alloca i32, align 4
  %24 = alloca i32, align 4
  %25 = alloca i32, align 4
  %26 = alloca i32, align 4
  %27 = alloca i32, align 4
  %28 = alloca i32, align 4
  %29 = alloca i32, align 4
  %30 = alloca ptr, align 8
  %31 = alloca i32, align 4
  %32 = alloca ptr, align 8
  store ptr %0, ptr %9, align 8
  store ptr %1, ptr %10, align 8
  store ptr %2, ptr %11, align 8
  store ptr %3, ptr %12, align 8
  store ptr %4, ptr %13, align 8
  store ptr %5, ptr %14, align 8
  store ptr %6, ptr %15, align 8
  store ptr %7, ptr %16, align 8
  %33 = load ptr, ptr %11, align 8
  %34 = load ptr, ptr %12, align 8
  %35 = load ptr, ptr %13, align 8
  %36 = load ptr, ptr %14, align 8
  %37 = load ptr, ptr %15, align 8
  %38 = load ptr, ptr %16, align 8
  store ptr %37, ptr %17, align 8
  %39 = load i32, ptr %33, align 4
  store i32 %39, ptr %19, align 4
  %40 = load i32, ptr %19, align 4
  %41 = sub nsw i32 %40, 0
  %42 = sdiv i32 %41, 1
  %43 = sub nsw i32 %42, 1
  store i32 %43, ptr %20, align 4
  store i32 0, ptr %21, align 4
  %44 = load i32, ptr %19, align 4
  %45 = icmp slt i32 0, %44
  br i1 %45, label %46, label %133

46:                                               ; preds = %8
  store i32 0, ptr %22, align 4
  %47 = load i32, ptr %20, align 4
  store i32 %47, ptr %23, align 4
  store i32 1, ptr %24, align 4
  store i32 0, ptr %25, align 4
  %48 = load ptr, ptr %9, align 8
  %49 = load i32, ptr %48, align 4
  call void @__kmpc_for_static_init_4(ptr @1, i32 %49, i32 33, ptr %25, ptr %22, ptr %23, ptr %24, i32 1, i32 1)
  br label %50

50:                                               ; preds = %123, %46
  %51 = load i32, ptr %23, align 4
  %52 = load i32, ptr %20, align 4
  %53 = icmp sgt i32 %51, %52
  br i1 %53, label %54, label %56

54:                                               ; preds = %50
  %55 = load i32, ptr %20, align 4
  br label %58

56:                                               ; preds = %50
  %57 = load i32, ptr %23, align 4
  br label %58

58:                                               ; preds = %56, %54
  %59 = phi i32 [ %55, %54 ], [ %57, %56 ]
  store i32 %59, ptr %23, align 4
  %60 = load i32, ptr %22, align 4
  store i32 %60, ptr %18, align 4
  %61 = load i32, ptr %18, align 4
  %62 = load i32, ptr %23, align 4
  %63 = icmp sle i32 %61, %62
  br i1 %63, label %64, label %130

64:                                               ; preds = %58
  br label %65

65:                                               ; preds = %113, %64
  %66 = load i32, ptr %18, align 4
  %67 = load i32, ptr %23, align 4
  %68 = icmp sle i32 %66, %67
  br i1 %68, label %69, label %122

69:                                               ; preds = %65
  %70 = load i32, ptr %18, align 4
  %71 = mul nsw i32 %70, 1
  %72 = add nsw i32 0, %71
  store i32 %72, ptr %26, align 4
  %73 = load i32, ptr %34, align 4
  %74 = load i32, ptr %35, align 4
  %75 = load i32, ptr %26, align 4
  %76 = mul nsw i32 %74, %75
  %77 = add nsw i32 %73, %76
  store i32 %77, ptr %27, align 4
  %78 = load i32, ptr %27, align 4
  %79 = load i32, ptr %35, align 4
  %80 = add nsw i32 %78, %79
  store i32 %80, ptr %29, align 4
  %81 = call noundef nonnull align 4 dereferenceable(4) ptr @_ZSt3minIiERKT_S2_S2_(ptr noundef nonnull align 4 dereferenceable(4) %36, ptr noundef nonnull align 4 dereferenceable(4) %29)
  %82 = load i32, ptr %81, align 4
  store i32 %82, ptr %28, align 4
  %83 = load i32, ptr %27, align 4
  %84 = load i32, ptr %28, align 4
  %85 = icmp slt i32 %83, %84
  br i1 %85, label %86, label %121

86:                                               ; preds = %69
  %87 = load ptr, ptr %17, align 8
  %88 = load i32, ptr %26, align 4
  %89 = load i32, ptr %27, align 4
  %90 = load i32, ptr %28, align 4
  invoke void @_ZNKSt8functionIFviiiEEclEiii(ptr noundef nonnull align 8 dereferenceable(32) %87, i32 noundef %88, i32 noundef %89, i32 noundef %90)
          to label %91 unwind label %92

91:                                               ; preds = %86
  br label %121

92:                                               ; preds = %86
  %93 = landingpad { ptr, i32 }
          catch ptr @_ZTISt9exception
          catch ptr null
  %94 = extractvalue { ptr, i32 } %93, 0
  store ptr %94, ptr %30, align 8
  %95 = extractvalue { ptr, i32 } %93, 1
  store i32 %95, ptr %31, align 4
  br label %96

96:                                               ; preds = %92
  %97 = load i32, ptr %31, align 4
  %98 = call i32 @llvm.eh.typeid.for.p0(ptr @_ZTISt9exception) #5
  %99 = icmp eq i32 %97, %98
  br i1 %99, label %100, label %116

100:                                              ; preds = %96
  %101 = load ptr, ptr %30, align 8
  %102 = call ptr @__cxa_begin_catch(ptr %101) #5
  store ptr %102, ptr %32, align 8
  %103 = load ptr, ptr %32, align 8
  %104 = load ptr, ptr %103, align 8
  %105 = getelementptr inbounds ptr, ptr %104, i64 2
  %106 = load ptr, ptr %105, align 8
  %107 = call noundef ptr %106(ptr noundef nonnull align 8 dereferenceable(8) %103) #5
  invoke void (ptr, ...) @_ZN8LightGBM3Log7WarningEPKcz(ptr noundef %107)
          to label %108 unwind label %134

108:                                              ; preds = %100
  invoke void @_ZN21ThreadExceptionHelper16CaptureExceptionEv(ptr noundef nonnull align 8 dereferenceable(48) %38)
          to label %109 unwind label %134

109:                                              ; preds = %108
  invoke void @__cxa_end_catch()
          to label %110 unwind label %134

110:                                              ; preds = %109
  br label %111

111:                                              ; preds = %121, %120, %110
  br label %112

112:                                              ; preds = %111
  br label %113

113:                                              ; preds = %112
  %114 = load i32, ptr %18, align 4
  %115 = add nsw i32 %114, 1
  store i32 %115, ptr %18, align 4
  br label %65

116:                                              ; preds = %96
  %117 = load ptr, ptr %30, align 8
  %118 = call ptr @__cxa_begin_catch(ptr %117) #5
  invoke void @_ZN21ThreadExceptionHelper16CaptureExceptionEv(ptr noundef nonnull align 8 dereferenceable(48) %38)
          to label %119 unwind label %134

119:                                              ; preds = %116
  invoke void @__cxa_end_catch()
          to label %120 unwind label %134

120:                                              ; preds = %119
  br label %111

121:                                              ; preds = %91, %69
  br label %111

122:                                              ; preds = %65
  br label %123

123:                                              ; preds = %122
  %124 = load i32, ptr %22, align 4
  %125 = load i32, ptr %24, align 4
  %126 = add nsw i32 %124, %125
  store i32 %126, ptr %22, align 4
  %127 = load i32, ptr %23, align 4
  %128 = load i32, ptr %24, align 4
  %129 = add nsw i32 %127, %128
  store i32 %129, ptr %23, align 4
  br label %50

130:                                              ; preds = %58
  %131 = load ptr, ptr %9, align 8
  %132 = load i32, ptr %131, align 4
  call void @__kmpc_for_static_fini(ptr @1, i32 %132)
  br label %133

133:                                              ; preds = %130, %8
  ret void

134:                                              ; preds = %119, %116, %109, %108, %100
  %135 = landingpad { ptr, i32 }
          catch ptr null
  %136 = extractvalue { ptr, i32 } %135, 0
  call void @__clang_call_terminate(ptr %136) #20
  unreachable
}